target datalayout = "e-m:e-p270:32:32-p271:32:32-p272:64:64-i64:64-i128:128-f80:128-n8:16:32:64-S128"
target triple = "x86_64-pc-linux-gnu"

@proto_register_zrtp.ett = internal global [9 x ptr] [ptr @ett_zrtp, ptr @ett_zrtp_msg, ptr @ett_zrtp_msg_data, ptr @ett_zrtp_msg_hc, ptr @ett_zrtp_msg_kc, ptr @ett_zrtp_msg_ac, ptr @ett_zrtp_msg_cc, ptr @ett_zrtp_msg_sc, ptr @ett_zrtp_checksum], align 16
@.str.86 = private unnamed_addr constant [5 x i8] c"ZRTP\00", align 1
@.str.87 = private unnamed_addr constant [5 x i8] c"zrtp\00", align 1
@proto_zrtp = internal global i32 0, align 4
@zrtp_handle = internal global ptr null, align 8

; Function Attrs: null_pointer_is_valid sspstrong uwtable
define hidden void @proto_register_zrtp() #0 {
  %1 = alloca ptr, align 8
  call void @llvm.lifetime.start.p0(i64 8, ptr %1) #6
  %2 = call i32 @proto_register_protocol(ptr noundef @.str.86, ptr noundef @.str.86, ptr noundef @.str.87)
  store i32 %2, ptr @proto_zrtp, align 4
  %3 = load i32, ptr @proto_zrtp, align 4
  call void @proto_register_field_array(i32 noundef %3, ptr noundef @proto_register_zrtp.hf, i32 noundef 42)
  call void @proto_register_subtree_array(ptr noundef @proto_register_zrtp.ett, i32 noundef 9)
  %4 = load i32, ptr @proto_zrtp, align 4
  %5 = call ptr @register_dissector(ptr noundef @.str.87, ptr noundef @dissect_zrtp, i32 noundef %4)
  store ptr %5, ptr @zrtp_handle, align 8
  %6 = load i32, ptr @proto_zrtp, align 4
  %7 = call ptr @expert_register_protocol(i32 noundef %6)
  store ptr %7, ptr %1, align 8
  %8 = load ptr, ptr %1, align 8
  call void @expert_register_field_array(ptr noundef %8, ptr noundef @proto_register_zrtp.ei, i32 noundef 1)
  call void @llvm.lifetime.end.p0(i64 8, ptr %1) #6
  ret void
}