; Function Attrs: null_pointer_is_valid sspstrong uwtable
define hidden void @proto_register_zrtp() local_unnamed_addr #0 {
  %1 = tail call i32 @proto_register_protocol(ptr noundef nonnull @.str.86, ptr noundef nonnull @.str.86, ptr noundef nonnull @.str.87)
  store i32 %1, ptr @proto_zrtp, align 4
  tail call void @proto_register_field_array(i32 noundef %1, ptr noundef nonnull @proto_register_zrtp.hf, i32 noundef 42)
  tail call void @proto_register_subtree_array(ptr noundef nonnull @proto_register_zrtp.ett, i32 noundef 9)
  %2 = load i32, ptr @proto_zrtp, align 4
  %3 = tail call ptr @register_dissector(ptr noundef nonnull @.str.87, ptr noundef nonnull @dissect_zrtp, i32 noundef %2)
  store ptr %3, ptr @zrtp_handle, align 8
  %4 = load i32, ptr @proto_zrtp, align 4
  %5 = tail call ptr @expert_register_protocol(i32 noundef %4)
  tail call void @expert_register_field_array(ptr noundef %5, ptr noundef nonnull @proto_register_zrtp.ei, i32 noundef 1)
  ret void
}